; Function Attrs: nofree nounwind uwtable
define void @Fraig_TablePrintStatsF0(ptr noundef readonly captures(none) %0) local_unnamed_addr #9 {
._crit_edge:
  %1 = getelementptr inbounds nuw i8, ptr %0, i64 64
  %2 = load ptr, ptr %1, align 8, !tbaa !53
  %3 = getelementptr inbounds nuw i8, ptr %2, i64 8
  %4 = load i32, ptr %3, align 8, !tbaa !6
  %5 = getelementptr inbounds nuw i8, ptr %2, i64 12
  %6 = load i32, ptr %5, align 4, !tbaa !33
  %7 = tail call i32 (ptr, ...) @printf(ptr noundef nonnull dereferenceable(1) @.str.5, i32 noundef %4, i32 noundef %6)
  %putchar = tail call i32 @putchar(i32 10)
  ret void
}